target datalayout = "e-m:e-p270:32:32-p271:32:32-p272:64:64-i64:64-i128:128-f80:128-n8:16:32:64-S128"
target triple = "x86_64-pc-linux-gnu"

%"class.bParse::bChunkInd" = type { i32, i32, ptr, i32, i32 }

@b3s_bulletDNAlen64 = external global i32, align 4
@b3s_bulletDNAstr64 = external global [0 x i8], align 1

; Function Attrs: mustprogress nounwind uwtable
define linkonce_odr dso_local void @_ZN6bParse9bChunkIndC2Ev(ptr noundef nonnull align 8 dereferenceable(24) %0) unnamed_addr #5 comdat align 2 {
  %2 = alloca ptr, align 8
  store ptr %0, ptr %2, align 8, !tbaa !59
  ret void
}

; Function Attrs: mustprogress uwtable
define dso_local void @_ZN6bParse12b3BulletFile8writeDNAEP8_IO_FILE(ptr noundef nonnull align 8 dereferenceable(840) %0, ptr noundef %1) unnamed_addr #0 align 2 {
  %3 = alloca ptr, align 8
  %4 = alloca ptr, align 8
  %5 = alloca %"class.bParse::bChunkInd", align 8
  store ptr %0, ptr %3, align 8, !tbaa !4
  store ptr %1, ptr %4, align 8, !tbaa !76
  call void @llvm.lifetime.start.p0(i64 24, ptr %5) #13
  call void @_ZN6bParse9bChunkIndC2Ev(ptr noundef nonnull align 8 dereferenceable(24) %5)
  %6 = getelementptr inbounds nuw %"class.bParse::bChunkInd", ptr %5, i32 0, i32 0
  store i32 826363460, ptr %6, align 8, !tbaa !50
  %7 = getelementptr inbounds nuw %"class.bParse::bChunkInd", ptr %5, i32 0, i32 3
  store i32 0, ptr %7, align 8, !tbaa !54
  %8 = getelementptr inbounds nuw %"class.bParse::bChunkInd", ptr %5, i32 0, i32 4
  store i32 1, ptr %8, align 4, !tbaa !78
  %9 = load i32, ptr @b3s_bulletDNAlen64, align 4, !tbaa !36
  %10 = getelementptr inbounds nuw %"class.bParse::bChunkInd", ptr %5, i32 0, i32 1
  store i32 %9, ptr %10, align 4, !tbaa !79
  %11 = getelementptr inbounds nuw %"class.bParse::bChunkInd", ptr %5, i32 0, i32 2
  store ptr @b3s_bulletDNAstr64, ptr %11, align 8, !tbaa !55
  %12 = load ptr, ptr %4, align 8, !tbaa !76
  %13 = call i64 @fwrite(ptr noundef %5, i64 noundef 24, i64 noundef 1, ptr noundef %12)
  %14 = load i32, ptr @b3s_bulletDNAlen64, align 4, !tbaa !36
  %15 = sext i32 %14 to i64
  %16 = load ptr, ptr %4, align 8, !tbaa !76
  %17 = call i64 @fwrite(ptr noundef @b3s_bulletDNAstr64, i64 noundef %15, i64 noundef 1, ptr noundef %16)
  call void @llvm.lifetime.end.p0(i64 24, ptr %5) #13
  ret void
}