; Function Attrs: mustprogress nofree nounwind uwtable
define dso_local void @_ZN6bParse12b3BulletFile8writeDNAEP8_IO_FILE(ptr nonnull readnone align 8 captures(none) %0, ptr noundef captures(none) %1) unnamed_addr #12 align 2 {
  %3 = alloca %"class.bParse::bChunkInd", align 8
  call void @llvm.lifetime.start.p0(i64 24, ptr nonnull %3) #17
  store i32 826363460, ptr %3, align 8, !tbaa !51
  %4 = getelementptr inbounds nuw i8, ptr %3, i64 16
  store i32 0, ptr %4, align 8, !tbaa !53
  %5 = getelementptr inbounds nuw i8, ptr %3, i64 20
  store i32 1, ptr %5, align 4, !tbaa !77
  %6 = load i32, ptr @b3s_bulletDNAlen64, align 4, !tbaa !42
  %7 = getelementptr inbounds nuw i8, ptr %3, i64 4
  store i32 %6, ptr %7, align 4, !tbaa !78
  %8 = getelementptr inbounds nuw i8, ptr %3, i64 8
  store ptr @b3s_bulletDNAstr64, ptr %8, align 8, !tbaa !54
  %9 = call i64 @fwrite(ptr noundef nonnull %3, i64 noundef 24, i64 noundef 1, ptr noundef %1)
  %10 = load i32, ptr @b3s_bulletDNAlen64, align 4, !tbaa !42
  %11 = sext i32 %10 to i64
  %12 = tail call i64 @fwrite(ptr noundef nonnull @b3s_bulletDNAstr64, i64 noundef %11, i64 noundef 1, ptr noundef %1)
  call void @llvm.lifetime.end.p0(i64 24, ptr nonnull %3) #17
  ret void
}